target datalayout = "e-m:e-p270:32:32-p271:32:32-p272:64:64-i64:64-i128:128-f80:128-n8:16:32:64-S128"
target triple = "x86_64-pc-linux-gnu"

%struct.malloc_mutex_s = type { %union.anon }
%union.anon = type { %struct.anon.1 }
%struct.anon.1 = type { %struct.mutex_prof_data_t, %union.pthread_mutex_t, %struct.atomic_b_t }
%struct.mutex_prof_data_t = type { %struct.nstime_t, %struct.nstime_t, i64, i64, i32, %struct.atomic_u32_t, i64, ptr, i64 }
%struct.nstime_t = type { i64 }
%struct.atomic_u32_t = type { i32 }
%union.pthread_mutex_t = type { %struct.__pthread_mutex_s }
%struct.__pthread_mutex_s = type { i32, i32, i32, i32, i32, i16, i16, %struct.__pthread_internal_list }
%struct.__pthread_internal_list = type { ptr, ptr }
%struct.atomic_b_t = type { i8 }
%struct.atomic_zd_t = type { i64 }
%struct.hpa_shard_opts_s = type { i64, i64, i32, i8, i64, i64 }
%struct.sec_opts_s = type { i64, i64, i64, i64, i64 }
%struct.arena_s = type { [2 x %struct.atomic_u_t], %struct.atomic_u_t, ptr, %struct.arena_stats_s, %struct.anon, %struct.anon.0, %struct.malloc_mutex_s, %struct.atomic_u_t, %struct.edata_list_active_t, %struct.malloc_mutex_s, %struct.pa_shard_s, i32, ptr, %struct.nstime_t, [0 x %struct.bin_s] }
%struct.arena_stats_s = type { i64, i64, i64, i64, %struct.atomic_zu_t, i64, i64, i64, i64, i64, i64, %struct.pa_shard_stats_s, i64, i64, [12 x %struct.mutex_prof_data_t], [196 x %struct.arena_stats_large_s], %struct.nstime_t }
%struct.atomic_zu_t = type { i64 }
%struct.pa_shard_stats_s = type { i64, %struct.pac_stats_s }
%struct.pac_stats_s = type { %struct.pac_decay_stats_s, %struct.pac_decay_stats_s, i64, %struct.atomic_zu_t, %struct.atomic_zu_t }
%struct.pac_decay_stats_s = type { %struct.locked_u64_s, %struct.locked_u64_s, %struct.locked_u64_s }
%struct.locked_u64_s = type { %struct.atomic_u64_t }
%struct.atomic_u64_t = type { i64 }
%struct.arena_stats_large_s = type { %struct.locked_u64_s, %struct.locked_u64_s, %struct.locked_u64_s, %struct.locked_u64_s, %struct.locked_u64_s, i64 }
%struct.anon = type { ptr }
%struct.anon.0 = type { ptr }
%struct.atomic_u_t = type { i32 }
%struct.edata_list_active_t = type { %struct.anon.3 }
%struct.anon.3 = type { ptr }
%struct.pa_shard_s = type { ptr, %struct.atomic_zu_t, %struct.atomic_b_t, i8, %struct.pac_s, %struct.sec_s, %struct.hpa_shard_s, %struct.edata_cache_s, i32, ptr, ptr, ptr, ptr }
%struct.pac_s = type { %struct.pai_s, %struct.ecache_s, %struct.ecache_s, %struct.ecache_s, ptr, ptr, ptr, %struct.exp_grow_s, %struct.malloc_mutex_s, %struct.san_bump_alloc_s, %struct.atomic_zu_t, %struct.decay_s, %struct.decay_s, ptr, ptr, %struct.atomic_zu_t }
%struct.pai_s = type { ptr, ptr, ptr, ptr, ptr, ptr, ptr }
%struct.ecache_s = type { %struct.malloc_mutex_s, %struct.eset_s, %struct.eset_s, i32, i32, i8 }
%struct.eset_s = type { [4 x i64], [200 x %struct.eset_bin_s], [200 x %struct.eset_bin_stats_s], %struct.edata_list_inactive_t, %struct.atomic_zu_t, i32 }
%struct.eset_bin_s = type { %struct.edata_heap_t, %struct.edata_cmp_summary_s }
%struct.edata_heap_t = type { %struct.ph_s }
%struct.ph_s = type { ptr, i64 }
%struct.edata_cmp_summary_s = type { i64, i64 }
%struct.eset_bin_stats_s = type { %struct.atomic_zu_t, %struct.atomic_zu_t }
%struct.edata_list_inactive_t = type { %struct.anon.4 }
%struct.anon.4 = type { ptr }
%struct.exp_grow_s = type { i32, i32 }
%struct.san_bump_alloc_s = type { %struct.malloc_mutex_s, ptr }
%struct.decay_s = type { %struct.malloc_mutex_s, i8, %struct.atomic_zd_t, %struct.nstime_t, %struct.nstime_t, i64, %struct.nstime_t, i64, i64, [200 x i64], i64 }
%struct.sec_s = type { %struct.pai_s, ptr, %struct.sec_opts_s, ptr, i32 }
%struct.hpa_shard_s = type { %struct.pai_s, ptr, %struct.malloc_mutex_s, %struct.malloc_mutex_s, ptr, %struct.edata_cache_fast_s, %struct.psset_s, i64, i32, ptr, %struct.hpa_shard_opts_s, i64, %struct.hpa_shard_nonderived_stats_s, %struct.nstime_t }
%struct.edata_cache_fast_s = type { %struct.edata_list_inactive_t, ptr, i8 }
%struct.psset_s = type { [64 x %struct.hpdata_age_heap_t], [1 x i64], %struct.psset_bin_stats_s, %struct.psset_stats_s, %struct.hpdata_empty_list_t, [128 x %struct.hpdata_purge_list_t], [2 x i64], %struct.hpdata_hugify_list_t }
%struct.hpdata_age_heap_t = type { %struct.ph_s }
%struct.psset_bin_stats_s = type { i64, i64, i64 }
%struct.psset_stats_s = type { [64 x [2 x %struct.psset_bin_stats_s]], [2 x %struct.psset_bin_stats_s], [2 x %struct.psset_bin_stats_s] }
%struct.hpdata_empty_list_t = type { %struct.anon.5 }
%struct.anon.5 = type { ptr }
%struct.hpdata_purge_list_t = type { %struct.anon.6 }
%struct.anon.6 = type { ptr }
%struct.hpdata_hugify_list_t = type { %struct.anon.7 }
%struct.anon.7 = type { ptr }
%struct.hpa_shard_nonderived_stats_s = type { i64, i64, i64, i64 }
%struct.edata_cache_s = type { %struct.edata_avail_t, %struct.atomic_zu_t, %struct.malloc_mutex_s, ptr }
%struct.edata_avail_t = type { %struct.ph_s }
%struct.bin_s = type { %struct.malloc_mutex_s, %struct.bin_stats_s, ptr, %struct.edata_heap_t, %struct.edata_list_active_t }
%struct.bin_stats_s = type { i64, i64, i64, i64, i64, i64, i64, i64, i64, i64 }

@nbins_total = internal global i32 0, align 4

; Function Attrs: nounwind uwtable
define hidden void @je_arena_postfork_parent(ptr noundef %0, ptr noundef %1) #0 {
  %3 = alloca ptr, align 8
  %4 = alloca ptr, align 8
  %5 = alloca i32, align 4
  store ptr %0, ptr %3, align 8, !tbaa !4
  store ptr %1, ptr %4, align 8, !tbaa !9
  call void @llvm.lifetime.start.p0(i64 4, ptr %5) #10
  store i32 0, ptr %5, align 4, !tbaa !17
  br label %6

6:                                                ; preds = %18, %2
  %7 = load i32, ptr %5, align 4, !tbaa !17
  %8 = load i32, ptr @nbins_total, align 4, !tbaa !17
  %9 = icmp ult i32 %7, %8
  br i1 %9, label %11, label %10

10:                                               ; preds = %6
  call void @llvm.lifetime.end.p0(i64 4, ptr %5) #10
  br label %21

11:                                               ; preds = %6
  %12 = load ptr, ptr %3, align 8, !tbaa !4
  %13 = load ptr, ptr %4, align 8, !tbaa !9
  %14 = getelementptr inbounds nuw %struct.arena_s, ptr %13, i32 0, i32 14
  %15 = load i32, ptr %5, align 4, !tbaa !17
  %16 = zext i32 %15 to i64
  %17 = getelementptr inbounds nuw [0 x %struct.bin_s], ptr %14, i64 0, i64 %16
  call void @je_bin_postfork_parent(ptr noundef %12, ptr noundef %17)
  br label %18

18:                                               ; preds = %11
  %19 = load i32, ptr %5, align 4, !tbaa !17
  %20 = add i32 %19, 1
  store i32 %20, ptr %5, align 4, !tbaa !17
  br label %6, !llvm.loop !249

21:                                               ; preds = %10
  %22 = load ptr, ptr %3, align 8, !tbaa !4
  %23 = load ptr, ptr %4, align 8, !tbaa !9
  %24 = getelementptr inbounds nuw %struct.arena_s, ptr %23, i32 0, i32 9
  call void @je_malloc_mutex_postfork_parent(ptr noundef %22, ptr noundef %24)
  %25 = load ptr, ptr %3, align 8, !tbaa !4
  %26 = load ptr, ptr %4, align 8, !tbaa !9
  %27 = getelementptr inbounds nuw %struct.arena_s, ptr %26, i32 0, i32 12
  %28 = load ptr, ptr %27, align 8, !tbaa !39
  call void @je_base_postfork_parent(ptr noundef %25, ptr noundef %28)
  %29 = load ptr, ptr %3, align 8, !tbaa !4
  %30 = load ptr, ptr %4, align 8, !tbaa !9
  %31 = getelementptr inbounds nuw %struct.arena_s, ptr %30, i32 0, i32 10
  call void @je_pa_shard_postfork_parent(ptr noundef %29, ptr noundef %31)
  %32 = load ptr, ptr %3, align 8, !tbaa !4
  %33 = load ptr, ptr %4, align 8, !tbaa !9
  %34 = getelementptr inbounds nuw %struct.arena_s, ptr %33, i32 0, i32 6
  call void @je_malloc_mutex_postfork_parent(ptr noundef %32, ptr noundef %34)
  ret void
}