; Function Attrs: nounwind uwtable
define hidden void @je_arena_postfork_parent(ptr noundef %0, ptr noundef %1) local_unnamed_addr #0 {
  %3 = load i32, ptr @nbins_total, align 4, !tbaa !4
  %.not = icmp eq i32 %3, 0
  br i1 %.not, label %._crit_edge, label %.lr.ph

.lr.ph:                                           ; preds = %2
  %4 = getelementptr inbounds nuw i8, ptr %1, i64 78952
  br label %10

._crit_edge:                                      ; preds = %10, %2
  %5 = getelementptr inbounds nuw i8, ptr %1, i64 10536
  tail call void @je_malloc_mutex_postfork_parent(ptr noundef %0, ptr noundef nonnull %5) #16
  %6 = getelementptr inbounds nuw i8, ptr %1, i64 78936
  %7 = load ptr, ptr %6, align 8, !tbaa !13
  tail call void @je_base_postfork_parent(ptr noundef %0, ptr noundef %7) #16
  %8 = getelementptr inbounds nuw i8, ptr %1, i64 10648
  tail call void @je_pa_shard_postfork_parent(ptr noundef %0, ptr noundef nonnull %8) #16
  %9 = getelementptr inbounds nuw i8, ptr %1, i64 10408
  tail call void @je_malloc_mutex_postfork_parent(ptr noundef %0, ptr noundef nonnull %9) #16
  ret void

10:                                               ; preds = %.lr.ph, %10
  %indvars.iv = phi i64 [ 0, %.lr.ph ], [ %indvars.iv.next, %10 ]
  %11 = getelementptr inbounds nuw [0 x %struct.bin_s], ptr %4, i64 0, i64 %indvars.iv
  tail call void @je_bin_postfork_parent(ptr noundef %0, ptr noundef nonnull %11) #16
  %indvars.iv.next = add nuw nsw i64 %indvars.iv, 1
  %12 = load i32, ptr @nbins_total, align 4, !tbaa !4
  %13 = zext i32 %12 to i64
  %14 = icmp samesign ult i64 %indvars.iv.next, %13
  br i1 %14, label %10, label %._crit_edge, !llvm.loop !226
}